; Function Attrs: nounwind uwtable
define internal void @uat_key_records_byte_order_tostr_cb(ptr noundef readonly captures(none) %0, ptr noundef writeonly captures(none) %1, ptr noundef writeonly captures(none) %2, ptr noundef readonly captures(none) %3, ptr readnone captures(none) %4) #0 {
  %6 = getelementptr inbounds nuw i8, ptr %3, i64 8
  %7 = load ptr, ptr %6, align 8
  %.not14 = icmp eq ptr %7, null
  br i1 %.not14, label %._crit_edge, label %.lr.ph

.lr.ph:                                           ; preds = %5
  %8 = getelementptr inbounds nuw i8, ptr %0, i64 8
  %9 = load i8, ptr %8, align 8
  %10 = zext i8 %9 to i32
  %11 = load i32, ptr %3, align 8
  %12 = icmp eq i32 %11, %10
  br i1 %12, label %._crit_edge21, label %.lr.ph20

.lr.ph20:                                         ; preds = %.lr.ph, %18
  %.01519 = phi i32 [ %13, %18 ], [ 0, %.lr.ph ]
  %13 = add i32 %.01519, 1
  %14 = zext i32 %13 to i64
  %15 = getelementptr %struct._value_string, ptr %3, i64 %14
  %16 = getelementptr inbounds nuw i8, ptr %15, i64 8
  %17 = load ptr, ptr %16, align 8
  %.not = icmp eq ptr %17, null
  br i1 %.not, label %._crit_edge, label %18, !llvm.loop !6

18:                                               ; preds = %.lr.ph20
  %19 = load i32, ptr %15, align 8
  %20 = icmp eq i32 %19, %10
  br i1 %20, label %._crit_edge21, label %.lr.ph20, !llvm.loop !6

._crit_edge21:                                    ; preds = %18, %.lr.ph
  %.lcssa = phi ptr [ %7, %.lr.ph ], [ %17, %18 ]
  %21 = tail call noalias ptr @g_strdup(ptr noundef nonnull %.lcssa) #11
  store ptr %21, ptr %1, align 8
  %22 = tail call i64 @strlen(ptr noundef nonnull dereferenceable(1) %21) #12
  %23 = trunc i64 %22 to i32
  br label %25

._crit_edge:                                      ; preds = %.lr.ph20, %5
  %24 = tail call noalias ptr @g_strdup(ptr noundef nonnull @.str.53) #11
  store ptr %24, ptr %1, align 8
  br label %25

25:                                               ; preds = %._crit_edge, %._crit_edge21
  %storemerge = phi i32 [ 6, %._crit_edge ], [ %23, %._crit_edge21 ]
  store i32 %storemerge, ptr %2, align 4
  ret void
}